target datalayout = "e-m:e-p270:32:32-p271:32:32-p272:64:64-i64:64-i128:128-f80:128-n8:16:32:64-S128"
target triple = "x86_64-pc-linux-gnu"

%struct.dlist_head = type { %struct.dlist_node }
%struct.dlist_node = type { ptr, ptr }
%struct.pg_atomic_uint32 = type { i32 }
%struct.PGPROC = type { %struct.dlist_node, ptr, ptr, i32, %struct.Latch, i32, i32, i32, i32, %struct.anon, i32, i32, i32, i8, i8, i8, i8, %struct.proclist_node, %struct.proclist_node, ptr, ptr, i32, i32, %struct.pg_atomic_uint64, i32, i8, i64, i32, %struct.dlist_node, [16 x %struct.dlist_head], %struct.XidCacheStatus, %struct.XidCache, i8, %struct.pg_atomic_uint32, i32, i32, i8, %struct.pg_atomic_uint32, i32, i32, i64, i64, %struct.LWLock, ptr, ptr, i8, i32, ptr, %struct.dlist_head, %struct.dlist_node }
%struct.Latch = type { i32, i32, i8, i32 }
%struct.anon = type { i32, i32 }
%struct.proclist_node = type { i32, i32 }
%struct.pg_atomic_uint64 = type { i64 }
%struct.XidCacheStatus = type { i8, i8 }
%struct.XidCache = type { [64 x i32] }
%struct.LWLock = type { i16, %struct.pg_atomic_uint32, %struct.proclist_head }
%struct.proclist_head = type { i32, i32 }
%union.LWLockPadded = type { %struct.LWLock, [112 x i8] }
%struct.DisableTimeoutParams = type { i32, i8 }
%struct.LOCALLOCK = type { %struct.LOCALLOCKTAG, i32, ptr, ptr, i64, i32, i32, ptr, i8, i8 }
%struct.LOCALLOCKTAG = type { %struct.LOCKTAG, i32 }
%struct.LOCKTAG = type { i32, i32, i32, i16, i8, i8 }

@MyProc = dso_local global ptr null, align 8
@InterruptHoldoffCount = external global i32, align 4
@MainLWLockArray = external global ptr, align 8

; Function Attrs: inlinehint nounwind uwtable
define internal zeroext i1 @dlist_node_is_detached(ptr noundef %0) #3 {
  %2 = alloca ptr, align 8
  store ptr %0, ptr %2, align 8
  %3 = load ptr, ptr %2, align 8
  %4 = getelementptr inbounds nuw %struct.dlist_node, ptr %3, i32 0, i32 1
  %5 = load ptr, ptr %4, align 8
  %6 = icmp eq ptr %5, null
  ret i1 %6
}

; Function Attrs: nounwind uwtable
define dso_local void @LockErrorCleanup() #0 {
  %1 = alloca ptr, align 8
  %2 = alloca ptr, align 8
  %3 = alloca [2 x %struct.DisableTimeoutParams], align 16
  %4 = alloca i32, align 4
  call void @llvm.lifetime.start.p0(i64 8, ptr %1) #10
  call void @llvm.lifetime.start.p0(i64 8, ptr %2) #10
  call void @llvm.lifetime.start.p0(i64 16, ptr %3) #10
  %5 = load volatile i32, ptr @InterruptHoldoffCount, align 4
  %6 = add i32 %5, 1
  store volatile i32 %6, ptr @InterruptHoldoffCount, align 4
  call void @AbortStrongLockAcquire()
  %7 = call ptr @GetAwaitedLock()
  store ptr %7, ptr %1, align 8
  %8 = load ptr, ptr %1, align 8
  %9 = icmp eq ptr %8, null
  br i1 %9, label %10, label %16

10:                                               ; preds = %0
  br label %11

11:                                               ; preds = %10
  %12 = load volatile i32, ptr @InterruptHoldoffCount, align 4
  %13 = add i32 %12, -1
  store volatile i32 %13, ptr @InterruptHoldoffCount, align 4
  br label %14

14:                                               ; preds = %11
  br label %15

15:                                               ; preds = %14
  store i32 1, ptr %4, align 4
  br label %58

16:                                               ; preds = %0
  %17 = getelementptr inbounds [2 x %struct.DisableTimeoutParams], ptr %3, i64 0, i64 0
  %18 = getelementptr inbounds nuw %struct.DisableTimeoutParams, ptr %17, i32 0, i32 0
  store i32 1, ptr %18, align 16
  %19 = getelementptr inbounds [2 x %struct.DisableTimeoutParams], ptr %3, i64 0, i64 0
  %20 = getelementptr inbounds nuw %struct.DisableTimeoutParams, ptr %19, i32 0, i32 1
  store i8 0, ptr %20, align 4
  %21 = getelementptr inbounds [2 x %struct.DisableTimeoutParams], ptr %3, i64 0, i64 1
  %22 = getelementptr inbounds nuw %struct.DisableTimeoutParams, ptr %21, i32 0, i32 0
  store i32 2, ptr %22, align 8
  %23 = getelementptr inbounds [2 x %struct.DisableTimeoutParams], ptr %3, i64 0, i64 1
  %24 = getelementptr inbounds nuw %struct.DisableTimeoutParams, ptr %23, i32 0, i32 1
  store i8 1, ptr %24, align 4
  %25 = getelementptr inbounds [2 x %struct.DisableTimeoutParams], ptr %3, i64 0, i64 0
  call void @disable_timeouts(ptr noundef %25, i32 noundef 2)
  %26 = load ptr, ptr @MainLWLockArray, align 8
  %27 = load ptr, ptr %1, align 8
  %28 = getelementptr inbounds nuw %struct.LOCALLOCK, ptr %27, i32 0, i32 1
  %29 = load i32, ptr %28, align 4
  %30 = urem i32 %29, 16
  %31 = add i32 181, %30
  %32 = zext i32 %31 to i64
  %33 = getelementptr inbounds nuw %union.LWLockPadded, ptr %26, i64 %32
  store ptr %33, ptr %2, align 8
  %34 = load ptr, ptr %2, align 8
  %35 = call zeroext i1 @LWLockAcquire(ptr noundef %34, i32 noundef 0)
  %36 = load ptr, ptr @MyProc, align 8
  %37 = getelementptr inbounds nuw %struct.PGPROC, ptr %36, i32 0, i32 0
  %38 = call zeroext i1 @dlist_node_is_detached(ptr noundef %37)
  br i1 %38, label %44, label %39

39:                                               ; preds = %16
  %40 = load ptr, ptr @MyProc, align 8
  %41 = load ptr, ptr %1, align 8
  %42 = getelementptr inbounds nuw %struct.LOCALLOCK, ptr %41, i32 0, i32 1
  %43 = load i32, ptr %42, align 4
  call void @RemoveFromWaitQueue(ptr noundef %40, i32 noundef %43)
  br label %51

44:                                               ; preds = %16
  %45 = load ptr, ptr @MyProc, align 8
  %46 = getelementptr inbounds nuw %struct.PGPROC, ptr %45, i32 0, i32 3
  %47 = load i32, ptr %46, align 8
  %48 = icmp eq i32 %47, 0
  br i1 %48, label %49, label %50

49:                                               ; preds = %44
  call void @GrantAwaitedLock()
  br label %50

50:                                               ; preds = %49, %44
  br label %51

51:                                               ; preds = %50, %39
  %52 = load ptr, ptr %2, align 8
  call void @LWLockRelease(ptr noundef %52)
  br label %53

53:                                               ; preds = %51
  %54 = load volatile i32, ptr @InterruptHoldoffCount, align 4
  %55 = add i32 %54, -1
  store volatile i32 %55, ptr @InterruptHoldoffCount, align 4
  br label %56

56:                                               ; preds = %53
  br label %57

57:                                               ; preds = %56
  store i32 0, ptr %4, align 4
  br label %58

58:                                               ; preds = %57, %15
  call void @llvm.lifetime.end.p0(i64 16, ptr %3) #10
  call void @llvm.lifetime.end.p0(i64 8, ptr %2) #10
  call void @llvm.lifetime.end.p0(i64 8, ptr %1) #10
  %59 = load i32, ptr %4, align 4
  switch i32 %59, label %61 [
    i32 0, label %60
    i32 1, label %60
  ]

60:                                               ; preds = %58, %58
  ret void

61:                                               ; preds = %58
  unreachable
}