; Function Attrs: nounwind uwtable
define dso_local void @LockErrorCleanup() local_unnamed_addr #0 {
  %1 = alloca [2 x %struct.DisableTimeoutParams], align 16
  call void @llvm.lifetime.start.p0(i64 16, ptr nonnull %1) #14
  %2 = load volatile i32, ptr @InterruptHoldoffCount, align 4
  %3 = add i32 %2, 1
  store volatile i32 %3, ptr @InterruptHoldoffCount, align 4
  tail call void @AbortStrongLockAcquire() #14
  %4 = tail call ptr @GetAwaitedLock() #14
  %5 = icmp eq ptr %4, null
  br i1 %5, label %29, label %6

6:                                                ; preds = %0
  store i32 1, ptr %1, align 16
  %7 = getelementptr inbounds nuw i8, ptr %1, i64 4
  store i8 0, ptr %7, align 4
  %8 = getelementptr inbounds nuw i8, ptr %1, i64 8
  store i32 2, ptr %8, align 8
  %9 = getelementptr inbounds nuw i8, ptr %1, i64 12
  store i8 1, ptr %9, align 4
  call void @disable_timeouts(ptr noundef nonnull %1, i32 noundef 2) #14
  %10 = load ptr, ptr @MainLWLockArray, align 8
  %11 = getelementptr inbounds nuw i8, ptr %4, i64 20
  %12 = load i32, ptr %11, align 4
  %13 = and i32 %12, 15
  %14 = zext nneg i32 %13 to i64
  %15 = getelementptr inbounds nuw %union.LWLockPadded, ptr %10, i64 %14
  %16 = getelementptr inbounds nuw i8, ptr %15, i64 23168
  %17 = call zeroext i1 @LWLockAcquire(ptr noundef nonnull %16, i32 noundef 0) #14
  %18 = load ptr, ptr @MyProc, align 8
  %19 = getelementptr i8, ptr %18, i64 8
  %.val = load ptr, ptr %19, align 8
  %20 = icmp eq ptr %.val, null
  br i1 %20, label %23, label %21

21:                                               ; preds = %6
  %22 = load i32, ptr %11, align 4
  call void @RemoveFromWaitQueue(ptr noundef nonnull %18, i32 noundef %22) #14
  br label %28

23:                                               ; preds = %6
  %24 = getelementptr inbounds nuw i8, ptr %18, i64 32
  %25 = load i32, ptr %24, align 8
  %26 = icmp eq i32 %25, 0
  br i1 %26, label %27, label %28

27:                                               ; preds = %23
  call void @GrantAwaitedLock() #14
  br label %28

28:                                               ; preds = %23, %27, %21
  call void @LWLockRelease(ptr noundef nonnull %16) #14
  br label %29

29:                                               ; preds = %0, %28
  %30 = load volatile i32, ptr @InterruptHoldoffCount, align 4
  %31 = add i32 %30, -1
  store volatile i32 %31, ptr @InterruptHoldoffCount, align 4
  call void @llvm.lifetime.end.p0(i64 16, ptr nonnull %1) #14
  ret void
}